target datalayout = "e-m:e-p270:32:32-p271:32:32-p272:64:64-i64:64-i128:128-f80:128-n8:16:32:64-S128"
target triple = "x86_64-pc-linux-gnu"

@.str = private unnamed_addr constant [35 x i8] c"../openssl/crypto/rand/prov_seed.c\00", align 1

; Function Attrs: nounwind uwtable
define i64 @ossl_rand_get_user_nonce(ptr noundef %0, ptr noundef %1, i64 noundef %2, i64 noundef %3, ptr noundef %4, i64 noundef %5) #0 {
  %7 = alloca i64, align 8
  %8 = alloca ptr, align 8
  %9 = alloca ptr, align 8
  %10 = alloca i64, align 8
  %11 = alloca i64, align 8
  %12 = alloca ptr, align 8
  %13 = alloca i64, align 8
  %14 = alloca ptr, align 8
  %15 = alloca ptr, align 8
  %16 = alloca i32, align 4
  store ptr %0, ptr %8, align 8, !tbaa !3
  store ptr %1, ptr %9, align 8, !tbaa !8
  store i64 %2, ptr %10, align 8, !tbaa !12
  store i64 %3, ptr %11, align 8, !tbaa !12
  store ptr %4, ptr %12, align 8, !tbaa !20
  store i64 %5, ptr %13, align 8, !tbaa !12
  call void @llvm.lifetime.start.p0(i64 8, ptr %14) #3
  call void @llvm.lifetime.start.p0(i64 8, ptr %15) #3
  %17 = load ptr, ptr %8, align 8, !tbaa !3
  %18 = call ptr @ossl_rand_get0_seed_noncreating(ptr noundef %17)
  store ptr %18, ptr %15, align 8, !tbaa !18
  %19 = load ptr, ptr %15, align 8, !tbaa !18
  %20 = icmp eq ptr %19, null
  br i1 %20, label %21, label %29

21:                                               ; preds = %6
  %22 = load ptr, ptr %8, align 8, !tbaa !3
  %23 = load ptr, ptr %9, align 8, !tbaa !8
  %24 = load i64, ptr %10, align 8, !tbaa !12
  %25 = load i64, ptr %11, align 8, !tbaa !12
  %26 = load ptr, ptr %12, align 8, !tbaa !20
  %27 = load i64, ptr %13, align 8, !tbaa !12
  %28 = call i64 @ossl_rand_get_nonce(ptr noundef %22, ptr noundef %23, i64 noundef %24, i64 noundef %25, ptr noundef %26, i64 noundef %27)
  store i64 %28, ptr %7, align 8
  store i32 1, ptr %16, align 4
  br label %48

29:                                               ; preds = %6
  %30 = load i64, ptr %10, align 8, !tbaa !12
  %31 = call noalias ptr @CRYPTO_malloc(i64 noundef %30, ptr noundef @.str, i32 noundef 111)
  store ptr %31, ptr %14, align 8, !tbaa !16
  %32 = icmp eq ptr %31, null
  br i1 %32, label %33, label %34

33:                                               ; preds = %29
  store i64 0, ptr %7, align 8
  store i32 1, ptr %16, align 4
  br label %48

34:                                               ; preds = %29
  %35 = load ptr, ptr %15, align 8, !tbaa !18
  %36 = load ptr, ptr %14, align 8, !tbaa !16
  %37 = load i64, ptr %10, align 8, !tbaa !12
  %38 = load ptr, ptr %12, align 8, !tbaa !20
  %39 = load i64, ptr %13, align 8, !tbaa !12
  %40 = call i32 @EVP_RAND_generate(ptr noundef %35, ptr noundef %36, i64 noundef %37, i32 noundef 0, i32 noundef 0, ptr noundef %38, i64 noundef %39)
  %41 = icmp ne i32 %40, 0
  br i1 %41, label %44, label %42

42:                                               ; preds = %34
  %43 = load ptr, ptr %14, align 8, !tbaa !16
  call void @CRYPTO_free(ptr noundef %43, ptr noundef @.str, i32 noundef 115)
  store i64 0, ptr %7, align 8
  store i32 1, ptr %16, align 4
  br label %48

44:                                               ; preds = %34
  %45 = load ptr, ptr %14, align 8, !tbaa !16
  %46 = load ptr, ptr %9, align 8, !tbaa !8
  store ptr %45, ptr %46, align 8, !tbaa !16
  %47 = load i64, ptr %10, align 8, !tbaa !12
  store i64 %47, ptr %7, align 8
  store i32 1, ptr %16, align 4
  br label %48

48:                                               ; preds = %44, %42, %33, %21
  call void @llvm.lifetime.end.p0(i64 8, ptr %15) #3
  call void @llvm.lifetime.end.p0(i64 8, ptr %14) #3
  %49 = load i64, ptr %7, align 8
  ret i64 %49
}