; Function Attrs: nounwind uwtable
define i64 @ossl_rand_get_user_nonce(ptr noundef %0, ptr noundef writeonly captures(none) %1, i64 noundef %2, i64 noundef %3, ptr noundef %4, i64 noundef %5) local_unnamed_addr #0 {
  %7 = tail call ptr @ossl_rand_get0_seed_noncreating(ptr noundef %0) #2
  %8 = icmp eq ptr %7, null
  br i1 %8, label %9, label %11

9:                                                ; preds = %6
  %10 = tail call i64 @ossl_rand_get_nonce(ptr poison, ptr noundef %1, i64 noundef %2, i64 noundef %3, ptr noundef %4, i64 noundef %5)
  br label %18

11:                                               ; preds = %6
  %12 = tail call noalias ptr @CRYPTO_malloc(i64 noundef %2, ptr noundef nonnull @.str, i32 noundef 111) #2
  %13 = icmp eq ptr %12, null
  br i1 %13, label %18, label %14

14:                                               ; preds = %11
  %15 = tail call i32 @EVP_RAND_generate(ptr noundef nonnull %7, ptr noundef nonnull %12, i64 noundef %2, i32 noundef 0, i32 noundef 0, ptr noundef %4, i64 noundef %5) #2
  %.not = icmp eq i32 %15, 0
  br i1 %.not, label %16, label %17

16:                                               ; preds = %14
  tail call void @CRYPTO_free(ptr noundef nonnull %12, ptr noundef nonnull @.str, i32 noundef 115) #2
  br label %18

17:                                               ; preds = %14
  store ptr %12, ptr %1, align 8, !tbaa !3
  br label %18

18:                                               ; preds = %11, %17, %16, %9
  %.0 = phi i64 [ %10, %9 ], [ %2, %17 ], [ 0, %16 ], [ 0, %11 ]
  ret i64 %.0
}